(dp1
S'output'
p2
S"<type 'exceptions.Exception'> Validation error, field:Username <gluon.validators.IS_NOT_IN_DB object at 0x7f5859a38fd0>"
p3
sS'layer'
p4
S'/home/mayankmodi/web2py/applications/MeetingMinutes/controllers/default.py'
p5
sS'code'
p6
S'# -*- coding: utf-8 -*-\n# this file is released under public domain and you can use without limitations\n\n#########################################################################\n## This is a sample controller\n## - index is the default action of any application\n## - user is required for authentication and authorization\n## - download is for downloading files uploaded in the db (does streaming)\n#########################################################################\n\ndef index():\n    """\n    example action using the internationalization operator T and flash\n    rendered by views/default/index.html or views/generic.html\n\n    if you need a simple wiki simply replace the two lines below with:\n    return auth.wiki()\n    """\n    response.flash = T("Hello World")\n    return dict(message=T(\'Welcome to web2py!\'))\n\n\ndef user():\n    """\n    exposes:\n    http://..../[app]/default/user/login\n    http://..../[app]/default/user/logout\n    http://..../[app]/default/user/register\n    http://..../[app]/default/user/profile\n    http://..../[app]/default/user/retrieve_password\n    http://..../[app]/default/user/change_password\n    http://..../[app]/default/user/bulk_register\n    use @auth.requires_login()\n        @auth.requires_membership(\'group name\')\n        @auth.requires_permission(\'read\',\'table name\',record_id)\n    to decorate functions that need access control\n    also notice there is http://..../[app]/appadmin/manage/auth to allow administrator to manage users\n    """\n    return dict(form=auth())\n\n\n@cache.action()\ndef download():\n    """\n    allows downloading of uploaded files\n    http://..../[app]/default/download/[filename]\n    """\n    return response.download(request, db)\n\n\ndef call():\n    """\n    exposes services. for example:\n    http://..../[app]/default/call/jsonrpc\n    decorate with @services.jsonrpc the functions to expose\n    supports xml, json, xmlrpc, jsonrpc, amfrpc, rss, csv\n    """\n    return service()\n\ndef minutes(): \n    fields = [field for field in db.Meetings]\n    inter = fields + [Field(\'organisations\',requires=IS_NOT_EMPTY,label=\'Organisations\')]\n    intra = fields + [Field(\'chair\',requires=IS_NOT_EMPTY,label=\'Chair\')]\n    pta = fields + [Field(\'Subject\')]\n    interform = SQLFORM.factory(*inter,formstyle=\'bootstrap\',table_name=\'intertable\').process()\n    return locals()\n\ndef search():\n    return dict(FORM(INPUT(_id=\'keyword\',_name=\'keyword\',_onkeyup="ajax(\'callback\',[\'keyword\'],\'target\');")),\n                target_div=DIV(_id=\'target\'))\ndef callback():\n    """an ajax callback that returns a <ul> of links to wiki pages"""\n    query = db.Meetings.title.contains(request.vars.keyword) or db.Meetings.tags.contains(request.vars.keyword)\n    pages = db(query).select(db.Meetings.ALL,orderby=-db.Meetings.id)\n    return dict(pages=pages)\n    links = [A(p.title, _href=URL(\'show\',args=p.id)) for p in pages]\n    return UL(*links)\n\nresponse._vars=response._caller(user)\n'
p7
sS'snapshot'
p8
(dp9
S'exception'
p10
(dp11
S'__hash__'
p12
S"<method-wrapper '__hash__' of exceptions.Exception object>"
p13
sS'__setattr__'
p14
S"<method-wrapper '__setattr__' of exceptions.Exception object>"
p15
sS'__reduce_ex__'
p16
S'<built-in method __reduce_ex__ of exceptions.Exception object>'
p17
sS'__getslice__'
p18
S"<method-wrapper '__getslice__' of exceptions.Exception object>"
p19
sS'__getitem__'
p20
S"<method-wrapper '__getitem__' of exceptions.Exception object>"
p21
sS'__setstate__'
p22
S'<built-in method __setstate__ of exceptions.Exception object>'
p23
sS'args'
p24
S"('Validation error, field:Username <gluon.validators.IS_NOT_IN_DB object at 0x7f5859a38fd0>',)"
p25
sS'__reduce__'
p26
S'<built-in method __reduce__ of exceptions.Exception object>'
p27
sS'__str__'
p28
S"<method-wrapper '__str__' of exceptions.Exception object>"
p29
sS'__format__'
p30
S'<built-in method __format__ of exceptions.Exception object>'
p31
sS'__getattribute__'
p32
S"<method-wrapper '__getattribute__' of exceptions.Exception object>"
p33
sS'__class__'
p34
S"<type 'exceptions.Exception'>"
p35
sS'__unicode__'
p36
S'<built-in method __unicode__ of exceptions.Exception object>'
p37
sS'__delattr__'
p38
S"<method-wrapper '__delattr__' of exceptions.Exception object>"
p39
sS'__subclasshook__'
p40
S'<built-in method __subclasshook__ of type object>'
p41
sS'__repr__'
p42
S"<method-wrapper '__repr__' of exceptions.Exception object>"
p43
sS'__dict__'
p44
S'{}'
p45
sS'__sizeof__'
p46
S'<built-in method __sizeof__ of exceptions.Exception object>'
p47
sS'__doc__'
p48
S"'Common base class for all non-exit exceptions.'"
p49
sS'__init__'
p50
S"<method-wrapper '__init__' of exceptions.Exception object>"
p51
sS'__new__'
p52
S'<built-in method __new__ of type object>'
p53
ssS'evalue'
p54
S'Validation error, field:Username <gluon.validators.IS_NOT_IN_DB object at 0x7f5859a38fd0>'
p55
sS'request'
p56
cgluon.html
XML_unpickle
p57
(S'sja\x00\x00<div><table><tr><td style="font-weight:bold;vertical-align:top;">ajax</td><td style="vertical-align:top;">:</td><td><div>False</div></td></tr><tr><td style="font-weight:bold;vertical-align:top;">application</td><td style="vertical-align:top;">:</td><td><div>MeetingMinutes</div></td></tr><tr><td style="font-weight:bold;vertical-align:top;">args</td><td style="vertical-align:top;">:</td><td><div><table><tr><td><div>register</div></td></tr></table></div></td></tr><tr><td style="font-weight:bold;vertical-align:top;">cid</td><td style="vertical-align:top;">:</td><td><div>None</div></td></tr><tr><td style="font-weight:bold;vertical-align:top;">client</td><td style="vertical-align:top;">:</td><td><div>127.0.0.1</div></td></tr><tr><td style="font-weight:bold;vertical-align:top;">controller</td><td style="vertical-align:top;">:</td><td><div>default</div></td></tr><tr><td style="font-weight:bold;vertical-align:top;">cookies</td><td style="vertical-align:top;">:</td><td><div><table><tr><td style="font-weight:bold;vertical-align:top;">session_id_admin</td><td style="vertical-align:top;">:</td><td><div>127.0.0.1-aab84bd1-c96b-4885-9517-37ed9b687e4f<table><tr><td style="font-weight:bold;vertical-align:top;">comment</td><td style="vertical-align:top;">:</td><td><div></div></td></tr><tr><td style="font-weight:bold;vertical-align:top;">domain</td><td style="vertical-align:top;">:</td><td><div></div></td></tr><tr><td style="font-weight:bold;vertical-align:top;">expires</td><td style="vertical-align:top;">:</td><td><div></div></td></tr><tr><td style="font-weight:bold;vertical-align:top;">httponly</td><td style="vertical-align:top;">:</td><td><div></div></td></tr><tr><td style="font-weight:bold;vertical-align:top;">max-age</td><td style="vertical-align:top;">:</td><td><div></div></td></tr><tr><td style="font-weight:bold;vertical-align:top;">path</td><td style="vertical-align:top;">:</td><td><div></div></td></tr><tr><td style="font-weight:bold;vertical-align:top;">secure</td><td style="vertical-align:top;">:</td><td><div></div></td></tr><tr><td style="font-weight:bold;vertical-align:top;">version</td><td style="vertical-align:top;">:</td><td><div></div></td></tr></table></div></td></tr><tr><td style="font-weight:bold;vertical-align:top;">session_id_meetingminutes</td><td style="vertical-align:top;">:</td><td><div>127.0.0.1-0bc1c1af-8e4f-416f-a597-bfc00714426b<table><tr><td style="font-weight:bold;vertical-align:top;">comment</td><td style="vertical-align:top;">:</td><td><div></div></td></tr><tr><td style="font-weight:bold;vertical-align:top;">domain</td><td style="vertical-align:top;">:</td><td><div></div></td></tr><tr><td style="font-weight:bold;vertical-align:top;">expires</td><td style="vertical-align:top;">:</td><td><div></div></td></tr><tr><td style="font-weight:bold;vertical-align:top;">httponly</td><td style="vertical-align:top;">:</td><td><div></div></td></tr><tr><td style="font-weight:bold;vertical-align:top;">max-age</td><td style="vertical-align:top;">:</td><td><div></div></td></tr><tr><td style="font-weight:bold;vertical-align:top;">path</td><td style="vertical-align:top;">:</td><td><div></div></td></tr><tr><td style="font-weight:bold;vertical-align:top;">secure</td><td style="vertical-align:top;">:</td><td><div></div></td></tr><tr><td style="font-weight:bold;vertical-align:top;">version</td><td style="vertical-align:top;">:</td><td><div></div></td></tr></table></div></td></tr><tr><td style="font-weight:bold;vertical-align:top;">session_id_welcome</td><td style="vertical-align:top;">:</td><td><div>127.0.0.1-25c2194d-66f6-4b16-af47-c965ab316851<table><tr><td style="font-weight:bold;vertical-align:top;">comment</td><td style="vertical-align:top;">:</td><td><div></div></td></tr><tr><td style="font-weight:bold;vertical-align:top;">domain</td><td style="vertical-align:top;">:</td><td><div></div></td></tr><tr><td style="font-weight:bold;vertical-align:top;">expires</td><td style="vertical-align:top;">:</td><td><div></div></td></tr><tr><td style="font-weight:bold;vertical-align:top;">httponly</td><td style="vertical-align:top;">:</td><td><div></div></td></tr><tr><td style="font-weight:bold;vertical-align:top;">max-age</td><td style="vertical-align:top;">:</td><td><div></div></td></tr><tr><td style="font-weight:bold;vertical-align:top;">path</td><td style="vertical-align:top;">:</td><td><div></div></td></tr><tr><td style="font-weight:bold;vertical-align:top;">secure</td><td style="vertical-align:top;">:</td><td><div></div></td></tr><tr><td style="font-weight:bold;vertical-align:top;">version</td><td style="vertical-align:top;">:</td><td><div></div></td></tr></table></div></td></tr></table></div></td></tr><tr><td style="font-weight:bold;vertical-align:top;">env</td><td style="vertical-align:top;">:</td><td><div><table><tr><td style="font-weight:bold;vertical-align:top;">CONTENT_LENGTH</td><td style="vertical-align:top;">:</td><td><div>1427</div></td></tr><tr><td style="font-weight:bold;vertical-align:top;">CONTENT_TYPE</td><td style="vertical-align:top;">:</td><td><div>multipart/form-data; boundary=---------------------------169813310586047047872569684</div></td></tr><tr><td style="font-weight:bold;vertical-align:top;">HTTP_ACCEPT</td><td style="vertical-align:top;">:</td><td><div>text/html,application/xhtml+xml,application/xml;q=0.9,*/*;q=0.8</div></td></tr><tr><td style="font-weight:bold;vertical-align:top;">HTTP_ACCEPT_ENCODING</td><td style="vertical-align:top;">:</td><td><div>gzip, deflate</div></td></tr><tr><td style="font-weight:bold;vertical-align:top;">HTTP_ACCEPT_LANGUAGE</td><td style="vertical-align:top;">:</td><td><div>en-US,en;q=0.5</div></td></tr><tr><td style="font-weight:bold;vertical-align:top;">HTTP_CONNECTION</td><td style="vertical-align:top;">:</td><td><div>keep-alive</div></td></tr><tr><td style="font-weight:bold;vertical-align:top;">HTTP_CONTENT_LENGTH</td><td style="vertical-align:top;">:</td><td><div>1427</div></td></tr><tr><td style="font-weight:bold;vertical-align:top;">HTTP_CONTENT_TYPE</td><td style="vertical-align:top;">:</td><td><div>multipart/form-data; boundary=---------------------------169813310586047047872569684</div></td></tr><tr><td style="font-weight:bold;vertical-align:top;">HTTP_COOKIE</td><td style="vertical-align:top;">:</td><td><div>session_id_welcome=127.0.0.1-25c2194d-66f6-4b16-af47-c965ab316851; session_id_admin=127.0.0.1-aab84bd1-c96b-4885-9517-37ed9b687e4f; session_id_meetingminutes=127.0.0.1-0bc1c1af-8e4f-416f-a597-bfc00714426b</div></td></tr><tr><td style="font-weight:bold;vertical-align:top;">HTTP_HOST</td><td style="vertical-align:top;">:</td><td><div>127.0.0.1:8000</div></td></tr><tr><td style="font-weight:bold;vertical-align:top;">HTTP_REFERER</td><td style="vertical-align:top;">:</td><td><div>http://127.0.0.1:8000/MeetingMinutes/default/user/register</div></td></tr><tr><td style="font-weight:bold;vertical-align:top;">HTTP_USER_AGENT</td><td style="vertical-align:top;">:</td><td><div>Mozilla/5.0 (X11; Ubuntu; Linux x86_64; rv:44.0) Gecko/20100101 Firefox/44.0</div></td></tr><tr><td style="font-weight:bold;vertical-align:top;">PATH_INFO</td><td style="vertical-align:top;">:</td><td><div>/MeetingMinutes/default/user/register</div></td></tr><tr><td style="font-weight:bold;vertical-align:top;">QUERY_STRING</td><td style="vertical-align:top;">:</td><td><div></div></td></tr><tr><td style="font-weight:bold;vertical-align:top;">REMOTE_ADDR</td><td style="vertical-align:top;">:</td><td><div>127.0.0.1</div></td></tr><tr><td style="font-weight:bold;vertical-align:top;">REMOTE_PORT</td><td style="vertical-align:top;">:</td><td><div>40482</div></td></tr><tr><td style="font-weight:bold;vertical-align:top;">REQUEST_METHOD</td><td style="vertical-align:top;">:</td><td><div>POST</div></td></tr><tr><td style="font-weight:bold;vertical-align:top;">SCRIPT_NAME</td><td style="vertical-align:top;">:</td><td><div></div></td></tr><tr><td style="font-weight:bold;vertical-align:top;">SERVER_NAME</td><td style="vertical-align:top;">:</td><td><div>mayankmodi-lenovo-g50-70</div></td></tr><tr><td style="font-weight:bold;vertical-align:top;">SERVER_PORT</td><td style="vertical-align:top;">:</td><td><div>8000</div></td></tr><tr><td style="font-weight:bold;vertical-align:top;">SERVER_PROTOCOL</td><td style="vertical-align:top;">:</td><td><div>HTTP/1.1</div></td></tr><tr><td style="font-weight:bold;vertical-align:top;">SERVER_SOFTWARE</td><td style="vertical-align:top;">:</td><td><div>Rocket 1.2.6</div></td></tr><tr><td style="font-weight:bold;vertical-align:top;">app_folders</td><td style="vertical-align:top;">:</td><td><div>set([&#x27;/home/mayankmodi/web2py/applications/welcome/&#x27;, &#x27;/home/mayankmodi/web2py/applications/MeetingMinutes/&#x27;, &#x27;/home/mayankmodi/web2py/applications/admin/&#x27;])</div></td></tr><tr><td style="font-weight:bold;vertical-align:top;">applications_parent</td><td style="vertical-align:top;">:</td><td><div>/home/mayankmodi/web2py</div></td></tr><tr><td style="font-weight:bold;vertical-align:top;">cmd_args</td><td style="vertical-align:top;">:</td><td><div><table></table></div></td></tr><tr><td style="font-weight:bold;vertical-align:top;">cmd_options</td><td style="vertical-align:top;">:</td><td><div>&lt;Values at 0x7f58967e6518: {&#x27;verbose&#x27;: False, &#x27;ip&#x27;: &#x27;127.0.0.1&#x27;, &#x27;debuglevel&#x27;: 30, &#x27;with_scheduler&#x27;: False, &#x27;ips&#x27;: [&#x27;127.0.1.1&#x27;], &#x27;shutdown_timeout&#x27;: 5, &#x27;taskbar&#x27;: False, &#x27;with_coverage&#x27;: False, &#x27;scheduler_groups&#x27;: None, &#x27;port&#x27;: 8000, &#x27;maxthreads&#x27;: None, &#x27;softcron&#x27;: False, &#x27;server_name&#x27;: &#x27;mayankmodi-lenovo-g50-70&#x27;, &#x27;bpython&#x27;: False, &#x27;nogui&#x27;: False, &#x27;pid_filename&#x27;: &#x27;httpserver.pid&#x27;, &#x27;print_errors&#x27;: False, &#x27;extcron&#x27;: False, &#x27;runcron&#x27;: False, &#x27;run_system_tests&#x27;: False, &#x27;test&#x27;: None, &#x27;folder&#x27;: &#x27;/home/mayankmodi/web2py&#x27;, &#x27;config&#x27;: &#x27;&#x27;, &#x27;minthreads&#x27;: None, &#x27;shell&#x27;: None, &#x27;run&#x27;: &#x27;&#x27;, &#x27;log_filename&#x27;: &#x27;httpserver.log&#x27;, &#x27;profiler_dir&#x27;: None, &#x27;args&#x27;: [&#x27;&#x27;], &#x27;socket_timeout&#x27;: 5, &#x27;ssl_ca_certificate&#x27;: None, &#x27;scheduler&#x27;: None, &#x27;interfaces&#x27;: None, &#x27;ssl_private_key&#x27;: &#x27;&#x27;, &#x27;gae&#x27;: None, &#x27;password&#x27;: &#x27;&lt;ask&gt;&#x27;, &#x27;request_queue_size&#x27;: 5, &#x27;ssl_certificate&#x27;: &#x27;&#x27;, &#x27;cronjob&#x27;: False, &#x27;numthreads&#x27;: None, &#x27;quiet&#x27;: False, &#x27;import_models&#x27;: False, &#x27;timeout&#x27;: 10, &#x27;plain&#x27;: False, &#x27;nobanner&#x27;: False}&gt;</div></td></tr><tr><td style="font-weight:bold;vertical-align:top;">content_length</td><td style="vertical-align:top;">:</td><td><div>1427</div></td></tr><tr><td style="font-weight:bold;vertical-align:top;">content_type</td><td style="vertical-align:top;">:</td><td><div>multipart/form-data; boundary=---------------------------169813310586047047872569684</div></td></tr><tr><td style="font-weight:bold;vertical-align:top;">db_sessions</td><td style="vertical-align:top;">:</td><td><div>set([])</div></td></tr><tr><td style="font-weight:bold;vertical-align:top;">debugging</td><td style="vertical-align:top;">:</td><td><div>True</div></td></tr><tr><td style="font-weight:bold;vertical-align:top;">gluon_parent</td><td style="vertical-align:top;">:</td><td><div>/home/mayankmodi/web2py</div></td></tr><tr><td style="font-weight:bold;vertical-align:top;">http_accept</td><td style="vertical-align:top;">:</td><td><div>text/html,application/xhtml+xml,application/xml;q=0.9,*/*;q=0.8</div></td></tr><tr><td style="font-weight:bold;vertical-align:top;">http_accept_encoding</td><td style="vertical-align:top;">:</td><td><div>gzip, deflate</div></td></tr><tr><td style="font-weight:bold;vertical-align:top;">http_accept_language</td><td style="vertical-align:top;">:</td><td><div>en-US,en;q=0.5</div></td></tr><tr><td style="font-weight:bold;vertical-align:top;">http_connection</td><td style="vertical-align:top;">:</td><td><div>keep-alive</div></td></tr><tr><td style="font-weight:bold;vertical-align:top;">http_content_length</td><td style="vertical-align:top;">:</td><td><div>1427</div></td></tr><tr><td style="font-weight:bold;vertical-align:top;">http_content_type</td><td style="vertical-align:top;">:</td><td><div>multipart/form-data; boundary=---------------------------169813310586047047872569684</div></td></tr><tr><td style="font-weight:bold;vertical-align:top;">http_cookie</td><td style="vertical-align:top;">:</td><td><div>session_id_welcome=127.0.0.1-25c2194d-66f6-4b16-af47-c965ab316851; session_id_admin=127.0.0.1-aab84bd1-c96b-4885-9517-37ed9b687e4f; session_id_meetingminutes=127.0.0.1-0bc1c1af-8e4f-416f-a597-bfc00714426b</div></td></tr><tr><td style="font-weight:bold;vertical-align:top;">http_host</td><td style="vertical-align:top;">:</td><td><div>127.0.0.1:8000</div></td></tr><tr><td style="font-weight:bold;vertical-align:top;">http_referer</td><td style="vertical-align:top;">:</td><td><div>http://127.0.0.1:8000/MeetingMinutes/default/user/register</div></td></tr><tr><td style="font-weight:bold;vertical-align:top;">http_user_agent</td><td style="vertical-align:top;">:</td><td><div>Mozilla/5.0 (X11; Ubuntu; Linux x86_64; rv:44.0) Gecko/20100101 Firefox/44.0</div></td></tr><tr><td style="font-weight:bold;vertical-align:top;">is_jython</td><td style="vertical-align:top;">:</td><td><div>False</div></td></tr><tr><td style="font-weight:bold;vertical-align:top;">is_pypy</td><td style="vertical-align:top;">:</td><td><div>False</div></td></tr><tr><td style="font-weight:bold;vertical-align:top;">is_source</td><td style="vertical-align:top;">:</td><td><div>True</div></td></tr><tr><td style="font-weight:bold;vertical-align:top;">local_hosts</td><td style="vertical-align:top;">:</td><td><div><table><tr><td><div>::ffff:127.0.0.1</div></td></tr><tr><td><div>::1</div></td></tr><tr><td><div>mayankmodi-lenovo-g50-70</div></td></tr><tr><td><div>127.0.1.1</div></td></tr><tr><td><div>mayankmodi-Lenovo-G50-70</div></td></tr><tr><td><div>127.0.0.1</div></td></tr></table></div></td></tr><tr><td style="font-weight:bold;vertical-align:top;">path_info</td><td style="vertical-align:top;">:</td><td><div>/MeetingMinutes/default/user/register</div></td></tr><tr><td style="font-weight:bold;vertical-align:top;">query_string</td><td style="vertical-align:top;">:</td><td><div></div></td></tr><tr><td style="font-weight:bold;vertical-align:top;">remote_addr</td><td style="vertical-align:top;">:</td><td><div>127.0.0.1</div></td></tr><tr><td style="font-weight:bold;vertical-align:top;">remote_port</td><td style="vertical-align:top;">:</td><td><div>40482</div></td></tr><tr><td style="font-weight:bold;vertical-align:top;">request_method</td><td style="vertical-align:top;">:</td><td><div>POST</div></td></tr><tr><td style="font-weight:bold;vertical-align:top;">request_uri</td><td style="vertical-align:top;">:</td><td><div>/MeetingMinutes/default/user/register</div></td></tr><tr><td style="font-weight:bold;vertical-align:top;">script_name</td><td style="vertical-align:top;">:</td><td><div></div></td></tr><tr><td style="font-weight:bold;vertical-align:top;">server_name</td><td style="vertical-align:top;">:</td><td><div>mayankmodi-lenovo-g50-70</div></td></tr><tr><td style="font-weight:bold;vertical-align:top;">server_port</td><td style="vertical-align:top;">:</td><td><div>8000</div></td></tr><tr><td style="font-weight:bold;vertical-align:top;">server_protocol</td><td style="vertical-align:top;">:</td><td><div>HTTP/1.1</div></td></tr><tr><td style="font-weight:bold;vertical-align:top;">server_software</td><td style="vertical-align:top;">:</td><td><div>Rocket 1.2.6</div></td></tr><tr><td style="font-weight:bold;vertical-align:top;">web2py_path</td><td style="vertical-align:top;">:</td><td><div>/home/mayankmodi/web2py</div></td></tr><tr><td style="font-weight:bold;vertical-align:top;">web2py_version</td><td style="vertical-align:top;">:</td><td><div>2.13.4-stable+timestamp.2015.12.26.04.59.39</div></td></tr><tr><td style="font-weight:bold;vertical-align:top;">wsgi.errors</td><td style="vertical-align:top;">:</td><td><div>&lt;open file &#x27;&lt;stderr&gt;&#x27;, mode &#x27;w&#x27; at 0x7f589ac031e0&gt;</div></td></tr><tr><td style="font-weight:bold;vertical-align:top;">wsgi.file_wrapper</td><td style="vertical-align:top;">:</td><td><div>&lt;class wsgiref.util.FileWrapper at 0x7f589678d188&gt;</div></td></tr><tr><td style="font-weight:bold;vertical-align:top;">wsgi.input</td><td style="vertical-align:top;">:</td><td><div>&lt;socket._fileobject object at 0x7f5859ea76d0&gt;</div></td></tr><tr><td style="font-weight:bold;vertical-align:top;">wsgi.multiprocess</td><td style="vertical-align:top;">:</td><td><div>False</div></td></tr><tr><td style="font-weight:bold;vertical-align:top;">wsgi.multithread</td><td style="vertical-align:top;">:</td><td><div>True</div></td></tr><tr><td style="font-weight:bold;vertical-align:top;">wsgi.run_once</td><td style="vertical-align:top;">:</td><td><div>False</div></td></tr><tr><td style="font-weight:bold;vertical-align:top;">wsgi.url_scheme</td><td style="vertical-align:top;">:</td><td><div>http</div></td></tr><tr><td style="font-weight:bold;vertical-align:top;">wsgi.version</td><td style="vertical-align:top;">:</td><td><div><table><tr><td><div>1</div></td></tr><tr><td><div>0</div></td></tr></table></div></td></tr><tr><td style="font-weight:bold;vertical-align:top;">wsgi_errors</td><td style="vertical-align:top;">:</td><td><div>&lt;open file &#x27;&lt;stderr&gt;&#x27;, mode &#x27;w&#x27; at 0x7f589ac031e0&gt;</div></td></tr><tr><td style="font-weight:bold;vertical-align:top;">wsgi_file_wrapper</td><td style="vertical-align:top;">:</td><td><div>&lt;class wsgiref.util.FileWrapper at 0x7f589678d188&gt;</div></td></tr><tr><td style="font-weight:bold;vertical-align:top;">wsgi_input</td><td style="vertical-align:top;">:</td><td><div>&lt;socket._fileobject object at 0x7f5859ea76d0&gt;</div></td></tr><tr><td style="font-weight:bold;vertical-align:top;">wsgi_multiprocess</td><td style="vertical-align:top;">:</td><td><div>False</div></td></tr><tr><td style="font-weight:bold;vertical-align:top;">wsgi_multithread</td><td style="vertical-align:top;">:</td><td><div>True</div></td></tr><tr><td style="font-weight:bold;vertical-align:top;">wsgi_run_once</td><td style="vertical-align:top;">:</td><td><div>False</div></td></tr><tr><td style="font-weight:bold;vertical-align:top;">wsgi_url_scheme</td><td style="vertical-align:top;">:</td><td><div>http</div></td></tr><tr><td style="font-weight:bold;vertical-align:top;">wsgi_version</td><td style="vertical-align:top;">:</td><td><div><table><tr><td><div>1</div></td></tr><tr><td><div>0</div></td></tr></table></div></td></tr></table></div></td></tr><tr><td style="font-weight:bold;vertical-align:top;">extension</td><td style="vertical-align:top;">:</td><td><div>html</div></td></tr><tr><td style="font-weight:bold;vertical-align:top;">folder</td><td style="vertical-align:top;">:</td><td><div>/home/mayankmodi/web2py/applications/MeetingMinutes/</div></td></tr><tr><td style="font-weight:bold;vertical-align:top;">function</td><td style="vertical-align:top;">:</td><td><div>user</div></td></tr><tr><td style="font-weight:bold;vertical-align:top;">global_settings</td><td style="vertical-align:top;">:</td><td><div><table><tr><td style="font-weight:bold;vertical-align:top;">app_folders</td><td style="vertical-align:top;">:</td><td><div>set([&#x27;/home/mayankmodi/web2py/applications/welcome/&#x27;, &#x27;/home/mayankmodi/web2py/applications/MeetingMinutes/&#x27;, &#x27;/home/mayankmodi/web2py/applications/admin/&#x27;])</div></td></tr><tr><td style="font-weight:bold;vertical-align:top;">applications_parent</td><td style="vertical-align:top;">:</td><td><div>/home/mayankmodi/web2py</div></td></tr><tr><td style="font-weight:bold;vertical-align:top;">cmd_args</td><td style="vertical-align:top;">:</td><td><div><table></table></div></td></tr><tr><td style="font-weight:bold;vertical-align:top;">cmd_options</td><td style="vertical-align:top;">:</td><td><div>&lt;Values at 0x7f58967e6518: {&#x27;verbose&#x27;: False, &#x27;ip&#x27;: &#x27;127.0.0.1&#x27;, &#x27;debuglevel&#x27;: 30, &#x27;with_scheduler&#x27;: False, &#x27;ips&#x27;: [&#x27;127.0.1.1&#x27;], &#x27;shutdown_timeout&#x27;: 5, &#x27;taskbar&#x27;: False, &#x27;with_coverage&#x27;: False, &#x27;scheduler_groups&#x27;: None, &#x27;port&#x27;: 8000, &#x27;maxthreads&#x27;: None, &#x27;softcron&#x27;: False, &#x27;server_name&#x27;: &#x27;mayankmodi-lenovo-g50-70&#x27;, &#x27;bpython&#x27;: False, &#x27;nogui&#x27;: False, &#x27;pid_filename&#x27;: &#x27;httpserver.pid&#x27;, &#x27;print_errors&#x27;: False, &#x27;extcron&#x27;: False, &#x27;runcron&#x27;: False, &#x27;run_system_tests&#x27;: False, &#x27;test&#x27;: None, &#x27;folder&#x27;: &#x27;/home/mayankmodi/web2py&#x27;, &#x27;config&#x27;: &#x27;&#x27;, &#x27;minthreads&#x27;: None, &#x27;shell&#x27;: None, &#x27;run&#x27;: &#x27;&#x27;, &#x27;log_filename&#x27;: &#x27;httpserver.log&#x27;, &#x27;profiler_dir&#x27;: None, &#x27;args&#x27;: [&#x27;&#x27;], &#x27;socket_timeout&#x27;: 5, &#x27;ssl_ca_certificate&#x27;: None, &#x27;scheduler&#x27;: None, &#x27;interfaces&#x27;: None, &#x27;ssl_private_key&#x27;: &#x27;&#x27;, &#x27;gae&#x27;: None, &#x27;password&#x27;: &#x27;&lt;ask&gt;&#x27;, &#x27;request_queue_size&#x27;: 5, &#x27;ssl_certificate&#x27;: &#x27;&#x27;, &#x27;cronjob&#x27;: False, &#x27;numthreads&#x27;: None, &#x27;quiet&#x27;: False, &#x27;import_models&#x27;: False, &#x27;timeout&#x27;: 10, &#x27;plain&#x27;: False, &#x27;nobanner&#x27;: False}&gt;</div></td></tr><tr><td style="font-weight:bold;vertical-align:top;">db_sessions</td><td style="vertical-align:top;">:</td><td><div>set([])</div></td></tr><tr><td style="font-weight:bold;vertical-align:top;">debugging</td><td style="vertical-align:top;">:</td><td><div>True</div></td></tr><tr><td style="font-weight:bold;vertical-align:top;">gluon_parent</td><td style="vertical-align:top;">:</td><td><div>/home/mayankmodi/web2py</div></td></tr><tr><td style="font-weight:bold;vertical-align:top;">is_jython</td><td style="vertical-align:top;">:</td><td><div>False</div></td></tr><tr><td style="font-weight:bold;vertical-align:top;">is_pypy</td><td style="vertical-align:top;">:</td><td><div>False</div></td></tr><tr><td style="font-weight:bold;vertical-align:top;">is_source</td><td style="vertical-align:top;">:</td><td><div>True</div></td></tr><tr><td style="font-weight:bold;vertical-align:top;">local_hosts</td><td style="vertical-align:top;">:</td><td><div><table><tr><td><div>::ffff:127.0.0.1</div></td></tr><tr><td><div>::1</div></td></tr><tr><td><div>mayankmodi-lenovo-g50-70</div></td></tr><tr><td><div>127.0.1.1</div></td></tr><tr><td><div>mayankmodi-Lenovo-G50-70</div></td></tr><tr><td><div>127.0.0.1</div></td></tr></table></div></td></tr><tr><td style="font-weight:bold;vertical-align:top;">web2py_version</td><td style="vertical-align:top;">:</td><td><div>2.13.4-stable+timestamp.2015.12.26.04.59.39</div></td></tr></table></div></td></tr><tr><td style="font-weight:bold;vertical-align:top;">is_https</td><td style="vertical-align:top;">:</td><td><div>False</div></td></tr><tr><td style="font-weight:bold;vertical-align:top;">is_local</td><td style="vertical-align:top;">:</td><td><div>True</div></td></tr><tr><td style="font-weight:bold;vertical-align:top;">is_restful</td><td style="vertical-align:top;">:</td><td><div>False</div></td></tr><tr><td style="font-weight:bold;vertical-align:top;">is_scheduler</td><td style="vertical-align:top;">:</td><td><div>False</div></td></tr><tr><td style="font-weight:bold;vertical-align:top;">is_shell</td><td style="vertical-align:top;">:</td><td><div>False</div></td></tr><tr><td style="font-weight:bold;vertical-align:top;">now</td><td style="vertical-align:top;">:</td><td><div>datetime.datetime(2016, 4, 28, 17, 16, 29, 7163)</div></td></tr><tr><td style="font-weight:bold;vertical-align:top;">raw_args</td><td style="vertical-align:top;">:</td><td><div>register</div></td></tr><tr><td style="font-weight:bold;vertical-align:top;">raw_extension</td><td style="vertical-align:top;">:</td><td><div>None</div></td></tr><tr><td style="font-weight:bold;vertical-align:top;">url</td><td style="vertical-align:top;">:</td><td><div>/MeetingMinutes/default/user/register</div></td></tr><tr><td style="font-weight:bold;vertical-align:top;">utcnow</td><td style="vertical-align:top;">:</td><td><div>datetime.datetime(2016, 4, 28, 11, 46, 29, 7184)</div></td></tr><tr><td style="font-weight:bold;vertical-align:top;">wsgi</td><td style="vertical-align:top;">:</td><td><div>&lt;gluon.main.LazyWSGI object at 0x7f5859a38210&gt;</div></td></tr></table></div>'
tRp58
sS'frames'
p59
(lp60
(dp61
S'file'
p62
S'/home/mayankmodi/web2py/gluon/restricted.py'
p63
sS'dump'
p64
(dp65
S'environment'
p66
S"{'A': <class 'gluon.html.A'>, 'ANY_OF': <class 'gluon.validators.ANY_OF'>, 'ASSIGNJS': <function ASSIGNJS>, 'AppConfig': <function AppConfig>, 'Auth': <class 'gluon.tools.Auth'>, 'B': <class 'gluon.html.B'>, 'BEAUTIFY': <class 'gluon.html.BEAUTIFY'>, 'BODY': <class 'gluon.html.BODY'>, 'BR': <class 'gluon.html.BR'>, 'BUTTON': <class 'gluon.html.BUTTON'>, ...}"
p67
sS'ccode'
p68
S'<code object <module> at 0x7f5859a26b30, file "/.../MeetingMinutes/controllers/default.py", line 11>'
p69
ssS'lnum'
p70
I227
sS'lines'
p71
(dp72
I224
S'            ccode = code'
p73
sI225
S'        else:'
p74
sI226
S'            ccode = compile2(code, layer)'
p75
sI227
S'        exec ccode in environment'
p76
sI228
S'    except HTTP:'
p77
sI229
S'        raise'
p78
sI230
S'    except RestrictedError:'
p79
sI231
S'        # do not encapsulate (obfuscate) the original RestrictedError'
p80
sI222
S'    try:'
p81
sI223
S'        if isinstance(code, types.CodeType):'
p82
ssS'call'
p83
S"(code='# -*- coding: utf-8 -*-\\n# this file is released ...L(*links)\\n\\nresponse._vars=response._caller(user)\\n', environment={'A': <class 'gluon.html.A'>, 'ANY_OF': <class 'gluon.validators.ANY_OF'>, 'ASSIGNJS': <function ASSIGNJS>, 'AppConfig': <function AppConfig>, 'Auth': <class 'gluon.tools.Auth'>, 'B': <class 'gluon.html.B'>, 'BEAUTIFY': <class 'gluon.html.BEAUTIFY'>, 'BODY': <class 'gluon.html.BODY'>, 'BR': <class 'gluon.html.BR'>, 'BUTTON': <class 'gluon.html.BUTTON'>, ...}, layer='/home/mayankmodi/web2py/applications/MeetingMinutes/controllers/default.py')"
p84
sS'func'
p85
S'restricted'
p86
sa(dp87
g62
S'/home/mayankmodi/web2py/applications/MeetingMinutes/controllers/default.py'
p88
sg64
(dp89
sg70
I79
sg71
(dp90
I68
S'def search():'
p91
sI69
S'    return dict(FORM(INPUT(_id=\'keyword\',_name=\'keyword\',_onkeyup="ajax(\'callback\',[\'keyword\'],\'target\');")),'
p92
sI70
S"                target_div=DIV(_id='target'))"
p93
sI71
S'def callback():'
p94
sI72
S'    """an ajax callback that returns a <ul> of links to wiki pages"""'
p95
sI73
S'    query = db.Meetings.title.contains(request.vars.keyword) or db.Meetings.tags.contains(request.vars.keyword)'
p96
sI74
S'    pages = db(query).select(db.Meetings.ALL,orderby=-db.Meetings.id)'
p97
sI75
S'    return dict(pages=pages)'
p98
sI76
S"    links = [A(p.title, _href=URL('show',args=p.id)) for p in pages]"
p99
sI77
S'    return UL(*links)'
p100
ssg83
S'()'
p101
sg85
S'<module>'
p102
sa(dp103
g62
S'/home/mayankmodi/web2py/gluon/globals.py'
p104
sg64
(dp105
S'self'
p106
S'undefined'
p107
sS'f'
S'<function user>'
p108
ssg70
I412
sg71
(dp109
I416
S"        self.generic_patterns = ['*']"
p110
sI407
S"        self.flash = ''            # used by the default view layout"
p111
sI408
S'        self.meta = Storage()      # used by web2py_ajax.html'
p112
sI409
S'        self.menu = []             # used by the default view layout'
p113
sI410
S'        self.files = []            # used by web2py_ajax.html'
p114
sI411
S'        self._vars = None'
p115
sI412
S'        self._caller = lambda f: f()'
p116
sI413
S'        self._view_environment = None'
p117
sI414
S'        self._custom_commit = None'
p118
sI415
S'        self._custom_rollback = None'
p119
ssg83
S'(f=<function user>)'
p120
sg85
S'<lambda>'
p121
sa(dp122
g62
S'/home/mayankmodi/web2py/applications/MeetingMinutes/controllers/default.py'
p123
sg64
(dp124
S'global auth'
p125
S'<gluon.tools.Auth object>'
p126
sS'form'
p127
g107
sS'builtindict'
p128
S"<type 'dict'>"
p129
ssg70
I39
sg71
(dp130
I34
S"        @auth.requires_membership('group name')"
p131
sI35
S"        @auth.requires_permission('read','table name',record_id)"
p132
sI36
S'    to decorate functions that need access control'
p133
sI37
S'    also notice there is http://..../[app]/appadmin/manage/auth to allow administrator to manage users'
p134
sI38
S'    """'
p135
sI39
S'    return dict(form=auth())'
p136
sI40
S''
sI41
S''
sI42
S'@cache.action()'
p137
sI43
S'def download():'
p138
ssg83
S'()'
p139
sg85
S'user'
p140
sa(dp141
g62
S'/home/mayankmodi/web2py/gluon/tools.py'
p142
sg64
(dp143
S'self'
p144
S'<gluon.tools.Auth object>'
p145
sS'args'
p146
S"['register']"
p147
sS'builtingetattr'
p148
S'<built-in function getattr>'
p149
ssg70
I1923
sg71
(dp150
I1920
S"            if len(request.args) >= 2 and args[0] == 'impersonate':"
p151
sI1921
S'                return getattr(self, args[0])(request.args[1])'
p152
sI1922
S'            else:'
p153
sI1923
S'                return getattr(self, args[0])()'
p154
sI1924
S"        elif args[0] == 'cas' and not self.settings.cas_provider:"
p155
sI1925
S"            if args(1) == self.settings.cas_actions['login']:"
p156
sI1926
S'                return self.cas_login(version=2)'
p157
sI1927
S"            elif args(1) == self.settings.cas_actions['validate']:"
p158
sI1918
S"                       'impersonate', 'not_authorized', 'confirm_registration',"
p159
sI1919
S"                       'bulk_register','manage_tokens','jwt'):"
p160
ssg83
S'(self=<gluon.tools.Auth object>)'
p161
sg85
S'__call__'
p162
sa(dp163
g62
S'/home/mayankmodi/web2py/gluon/tools.py'
p164
sg64
(dp165
S'self'
p166
S'<gluon.tools.Auth object>'
p167
sS'hideerror'
p168
g107
sS'self.settings.hideerror'
p169
S'False'
p170
sS'self.settings'
p171
S"<Storage {'verify_email_onaccept': [], 'register...username_next': '/MeetingMinutes/default/index'}>"
p172
ssg70
I3343
sg71
(dp173
I3338
S''
sI3339
S'        table_user.registration_key.default = key'
p174
sI3340
S'        if form.accepts(request, session if self.csrf_prevention else None,'
p175
sI3341
S"                        formname='register',"
p176
sI3342
S'                        onvalidation=onvalidation,'
p177
sI3343
S'                        hideerror=self.settings.hideerror):'
p178
sI3344
S'            description = self.messages.group_description % form.vars'
p179
sI3345
S'            if self.settings.create_user_groups:'
p180
sI3346
S'                group_id = self.add_group('
p181
sI3347
S'                    self.settings.create_user_groups % form.vars, description)'
p182
ssg83
S"(self=<gluon.tools.Auth object>, next='/MeetingMinutes/default/index', onvalidation=[], onaccept=[], log='User %(id)s Registered')"
p183
sg85
S'register'
p184
sa(dp185
g62
S'/home/mayankmodi/web2py/gluon/sqlhtml.py'
p186
sg64
(dp187
S'kwargs'
p188
g45
ssg70
I1505
sg71
(dp189
I1504
S'            hideerror=hideerror,'
p190
sI1505
S'            **kwargs'
p191
sI1506
S'        )'
p192
sI1507
S''
sI1508
S'        self.deleted = \\'
p193
sI1509
S'            request_vars.get(self.FIELDNAME_REQUEST_DELETE, False)'
p194
sI1500
S'            session,'
p195
sI1501
S'            formname,'
p196
sI1502
S'            keepvalues,'
p197
sI1503
S'            onvalidation,'
p198
ssg83
S"(self=<gluon.sqlhtml.SQLFORM object>, request_vars=<Storage {'Username': 'last', 'Phone_number': '8...ssword': 'Ab@12345678', '_formname': 'register'}>, session=<Storage {'_formkey[register]': [], '_formkey[login]': ['35c3acd9-ad87-4d81-a39f-a25ca52dd49b']}>, formname='register', keepvalues=False, onvalidation=[], dbio=True, hideerror=False, detect_record_change=False, **kwargs={})"
p199
sg85
S'accepts'
p200
sa(dp201
g62
S'/home/mayankmodi/web2py/gluon/html.py'
p202
sg64
(dp203
S'status'
p204
S'True'
p205
sS'self'
p206
S'<gluon.sqlhtml.SQLFORM object>'
p207
sS'self._traverse'
p208
S'<bound method SQLFORM._traverse of <gluon.sqlhtml.SQLFORM object>>'
p209
sS'hideerror'
p210
g170
ssg70
I2122
sg71
(dp211
I2117
S'        if status and session:'
p212
sI2118
S'            # check if editing a record that has been modified by the server'
p213
sI2119
S"            if hasattr(self, 'record_hash') and self.record_hash != formkey.split(':')[0]:"
p214
sI2120
S'                status = False'
p215
sI2121
S'                self.record_changed = changed = True'
p216
sI2122
S'        status = self._traverse(status, hideerror)'
p217
sI2123
S'        status = self.assert_status(status, request_vars)'
p218
sI2124
S'        if onvalidation:'
p219
sI2125
S'            if isinstance(onvalidation, dict):'
p220
sI2126
S"                onsuccess = onvalidation.get('onsuccess', None)"
p221
ssg83
S"(self=<gluon.sqlhtml.SQLFORM object>, request_vars=<Storage {'Username': 'last', 'Phone_number': '8...word': 'Ab@12345678', 'email': 'last@gmail.com'}>, session=<Storage {'_formkey[register]': [], '_formkey[login]': ['35c3acd9-ad87-4d81-a39f-a25ca52dd49b']}>, formname='register', keepvalues=False, onvalidation=[], hideerror=False, **kwargs={})"
p222
sg85
g200
sa(dp223
g62
S'/home/mayankmodi/web2py/gluon/html.py'
p224
sg64
(dp225
S'status'
p226
g205
sS'newstatus'
p227
g205
sS'c'
S'<gluon.html.CAT object>'
p228
sS'hideerror'
p229
g170
sS'c._traverse'
p230
S'<bound method CAT._traverse of <gluon.html.CAT object>>'
p231
ssg70
I888
sg71
(dp232
I883
S'                c.latest = self.latest'
p233
sI884
S'                c.session = self.session'
p234
sI885
S'                c.formname = self.formname'
p235
sI886
S"                if not c.attributes.get('hideerror'):"
p236
sI887
S"                    c['hideerror'] = hideerror or self.attributes.get('hideerror')"
p237
sI888
S'                newstatus = c._traverse(status, hideerror) and newstatus'
p238
sI889
S''
sI890
S'        # for input, textarea, select, option'
p239
sI891
S"        # deal with 'value' and 'validation'"
p240
sI892
S''
ssg83
S'(self=<gluon.sqlhtml.SQLFORM object>, status=True, hideerror=False)'
p241
sg85
S'_traverse'
p242
sa(dp243
g62
S'/home/mayankmodi/web2py/gluon/html.py'
p244
sg64
(dp245
S'status'
p246
g205
sS'newstatus'
p247
g205
sS'c'
S'<gluon.html.DIV object>'
p248
sS'hideerror'
p249
g170
sS'c._traverse'
p250
S'<bound method DIV._traverse of <gluon.html.DIV object>>'
p251
ssg70
I888
sg71
(dp252
I883
S'                c.latest = self.latest'
p253
sI884
S'                c.session = self.session'
p254
sI885
S'                c.formname = self.formname'
p255
sI886
S"                if not c.attributes.get('hideerror'):"
p256
sI887
S"                    c['hideerror'] = hideerror or self.attributes.get('hideerror')"
p257
sI888
S'                newstatus = c._traverse(status, hideerror) and newstatus'
p258
sI889
S''
sI890
S'        # for input, textarea, select, option'
p259
sI891
S"        # deal with 'value' and 'validation'"
p260
sI892
S''
ssg83
S'(self=<gluon.html.CAT object>, status=True, hideerror=False)'
p261
sg85
g242
sa(dp262
g62
S'/home/mayankmodi/web2py/gluon/html.py'
p263
sg64
(dp264
S'status'
p265
g205
sS'newstatus'
p266
g205
sS'c'
S'<gluon.html.DIV object>'
p267
sS'hideerror'
p268
g170
sS'c._traverse'
p269
S'<bound method DIV._traverse of <gluon.html.DIV object>>'
p270
ssg70
I888
sg71
(dp271
I883
S'                c.latest = self.latest'
p272
sI884
S'                c.session = self.session'
p273
sI885
S'                c.formname = self.formname'
p274
sI886
S"                if not c.attributes.get('hideerror'):"
p275
sI887
S"                    c['hideerror'] = hideerror or self.attributes.get('hideerror')"
p276
sI888
S'                newstatus = c._traverse(status, hideerror) and newstatus'
p277
sI889
S''
sI890
S'        # for input, textarea, select, option'
p278
sI891
S"        # deal with 'value' and 'validation'"
p279
sI892
S''
ssg83
S'(self=<gluon.html.DIV object>, status=True, hideerror=False)'
p280
sg85
g242
sa(dp281
g62
S'/home/mayankmodi/web2py/gluon/html.py'
p282
sg64
(dp283
S'status'
p284
g205
sS'newstatus'
p285
g205
sS'c'
S'<gluon.html.INPUT object>'
p286
sS'hideerror'
p287
g170
sS'c._traverse'
p288
S'<bound method INPUT._traverse of <gluon.html.INPUT object>>'
p289
ssg70
I888
sg71
(dp290
I883
S'                c.latest = self.latest'
p291
sI884
S'                c.session = self.session'
p292
sI885
S'                c.formname = self.formname'
p293
sI886
S"                if not c.attributes.get('hideerror'):"
p294
sI887
S"                    c['hideerror'] = hideerror or self.attributes.get('hideerror')"
p295
sI888
S'                newstatus = c._traverse(status, hideerror) and newstatus'
p296
sI889
S''
sI890
S'        # for input, textarea, select, option'
p297
sI891
S"        # deal with 'value' and 'validation'"
p298
sI892
S''
ssg83
S'(self=<gluon.html.DIV object>, status=True, hideerror=False)'
p299
sg85
g242
sa(dp300
g62
S'/home/mayankmodi/web2py/gluon/html.py'
p301
sg64
(dp302
S'newstatus'
p303
g205
sS'self'
p304
S'<gluon.html.INPUT object>'
p305
sS'self._validate'
p306
S'<bound method INPUT._validate of <gluon.html.INPUT object>>'
p307
ssg70
I895
sg71
(dp308
I896
S'            self._postprocessing()'
p309
sI897
S"        elif 'old_value' in self.attributes:"
p310
sI898
S"            self['value'] = self['old_value']"
p311
sI899
S'            self._postprocessing()'
p312
sI890
S'        # for input, textarea, select, option'
p313
sI891
S"        # deal with 'value' and 'validation'"
p314
sI892
S''
sI893
S"        name = self['_name']"
p315
sI894
S'        if newstatus:'
p316
sI895
S'            newstatus = self._validate()'
p317
ssg83
S'(self=<gluon.html.INPUT object>, status=True, hideerror=False)'
p318
sg85
g242
sa(dp319
g62
S'/home/mayankmodi/web2py/gluon/html.py'
p320
sg64
(dp321
S'builtinException'
p322
S"<type 'exceptions.Exception'>"
p323
sS'msg'
p324
S"'Validation error, field:Username <gluon.validators.IS_NOT_IN_DB object at 0x7f5859a38fd0>'"
p325
ssg70
I1863
sg71
(dp326
I1858
S'            for k, validator in enumerate(requires):'
p327
sI1859
S'                try:'
p328
sI1860
S'                    (value, errors) = validator(value)'
p329
sI1861
S'                except:'
p330
sI1862
S'                    msg = "Validation error, field:%s %s" % (name,validator)'
p331
sI1863
S'                    raise Exception(msg)'
p332
sI1864
S'                if not errors is None:'
p333
sI1865
S'                    self.vars[name] = value'
p334
sI1866
S'                    self.errors[name] = errors'
p335
sI1867
S'                    break'
p336
ssg83
S'(self=<gluon.html.INPUT object>)'
p337
sg85
S'_validate'
p338
sasS'pyver'
p339
S'Python 2.7.9: /usr/bin/python (prefix: /usr)'
p340
sS'session'
p341
g57
(S's\x1a\x00\x00\x00<div><table></table></div>'
tRp342
sS'etype'
p343
S"<type 'exceptions.Exception'>"
p344
sS'date'
p345
S'Thu Apr 28 17:16:29 2016'
p346
sS'response'
p347
g57
(S'sT\x1e\x00\x00<div><table><tr><td style="font-weight:bold;vertical-align:top;">body</td><td style="vertical-align:top;">:</td><td><div>&lt;cStringIO.StringO object at 0x7f58988a6bc8&gt;</div></td></tr><tr><td style="font-weight:bold;vertical-align:top;">cookies</td><td style="vertical-align:top;">:</td><td><div><table><tr><td style="font-weight:bold;vertical-align:top;">session_id_meetingminutes</td><td style="vertical-align:top;">:</td><td><div>127.0.0.1-0bc1c1af-8e4f-416f-a597-bfc00714426b<table><tr><td style="font-weight:bold;vertical-align:top;">comment</td><td style="vertical-align:top;">:</td><td><div></div></td></tr><tr><td style="font-weight:bold;vertical-align:top;">domain</td><td style="vertical-align:top;">:</td><td><div></div></td></tr><tr><td style="font-weight:bold;vertical-align:top;">expires</td><td style="vertical-align:top;">:</td><td><div></div></td></tr><tr><td style="font-weight:bold;vertical-align:top;">httponly</td><td style="vertical-align:top;">:</td><td><div></div></td></tr><tr><td style="font-weight:bold;vertical-align:top;">max-age</td><td style="vertical-align:top;">:</td><td><div></div></td></tr><tr><td style="font-weight:bold;vertical-align:top;">path</td><td style="vertical-align:top;">:</td><td><div>/</div></td></tr><tr><td style="font-weight:bold;vertical-align:top;">secure</td><td style="vertical-align:top;">:</td><td><div></div></td></tr><tr><td style="font-weight:bold;vertical-align:top;">version</td><td style="vertical-align:top;">:</td><td><div></div></td></tr></table></div></td></tr></table></div></td></tr><tr><td style="font-weight:bold;vertical-align:top;">delimiters</td><td style="vertical-align:top;">:</td><td><div><table><tr><td><div>{{</div></td></tr><tr><td><div>}}</div></td></tr></table></div></td></tr><tr><td style="font-weight:bold;vertical-align:top;">files</td><td style="vertical-align:top;">:</td><td><div><table></table></div></td></tr><tr><td style="font-weight:bold;vertical-align:top;">flash</td><td style="vertical-align:top;">:</td><td><div></div></td></tr><tr><td style="font-weight:bold;vertical-align:top;">form_label_separator</td><td style="vertical-align:top;">:</td><td><div></div></td></tr><tr><td style="font-weight:bold;vertical-align:top;">formstyle</td><td style="vertical-align:top;">:</td><td><div>bootstrap3_inline</div></td></tr><tr><td style="font-weight:bold;vertical-align:top;">generic_patterns</td><td style="vertical-align:top;">:</td><td><div><table><tr><td><div>*</div></td></tr></table></div></td></tr><tr><td style="font-weight:bold;vertical-align:top;">google_analytics_id</td><td style="vertical-align:top;">:</td><td><div>None</div></td></tr><tr><td style="font-weight:bold;vertical-align:top;">headers</td><td style="vertical-align:top;">:</td><td><div><table><tr><td style="font-weight:bold;vertical-align:top;">X-Powered-By</td><td style="vertical-align:top;">:</td><td><div>web2py</div></td></tr></table></div></td></tr><tr><td style="font-weight:bold;vertical-align:top;">logo</td><td style="vertical-align:top;">:</td><td><div><a class="navbar-brand" href="/MeetingMinutes/default/index" id="web2py-logo"><b>Meeting<span>Master</span></b>&trade;&nbsp;</a></div></td></tr><tr><td style="font-weight:bold;vertical-align:top;">menu</td><td style="vertical-align:top;">:</td><td><div><table><tr><td><div><table><tr><td><div>My Meetings</div></td></tr><tr><td><div>False</div></td></tr><tr><td><div>/MeetingMinutes/default/minutes</div></td></tr></table></div></td></tr></table></div></td></tr><tr><td style="font-weight:bold;vertical-align:top;">meta</td><td style="vertical-align:top;">:</td><td><div><table><tr><td style="font-weight:bold;vertical-align:top;">author</td><td style="vertical-align:top;">:</td><td><div>Your Name &lt;you@example.com&gt;</div></td></tr><tr><td style="font-weight:bold;vertical-align:top;">description</td><td style="vertical-align:top;">:</td><td><div>a cool new app</div></td></tr><tr><td style="font-weight:bold;vertical-align:top;">generator</td><td style="vertical-align:top;">:</td><td><div>Web2py Web Framework</div></td></tr><tr><td style="font-weight:bold;vertical-align:top;">keywords</td><td style="vertical-align:top;">:</td><td><div>web2py, python, framework</div></td></tr></table></div></td></tr><tr><td style="font-weight:bold;vertical-align:top;">models_to_run</td><td style="vertical-align:top;">:</td><td><div><table><tr><td><div>^\\w+\\.py$</div></td></tr><tr><td><div>^default/\\w+\\.py$</div></td></tr><tr><td><div>^default/user/\\w+\\.py$</div></td></tr></table></div></td></tr><tr><td style="font-weight:bold;vertical-align:top;">postprocessing</td><td style="vertical-align:top;">:</td><td><div><table></table></div></td></tr><tr><td style="font-weight:bold;vertical-align:top;">session_client</td><td style="vertical-align:top;">:</td><td><div>127.0.0.1</div></td></tr><tr><td style="font-weight:bold;vertical-align:top;">session_cookie_compression_level</td><td style="vertical-align:top;">:</td><td><div>None</div></td></tr><tr><td style="font-weight:bold;vertical-align:top;">session_cookie_expires</td><td style="vertical-align:top;">:</td><td><div>None</div></td></tr><tr><td style="font-weight:bold;vertical-align:top;">session_cookie_key</td><td style="vertical-align:top;">:</td><td><div>None</div></td></tr><tr><td style="font-weight:bold;vertical-align:top;">session_data_name</td><td style="vertical-align:top;">:</td><td><div>session_data_meetingminutes</div></td></tr><tr><td style="font-weight:bold;vertical-align:top;">session_file</td><td style="vertical-align:top;">:</td><td><div>&lt;open file &#x27;/home/mayankmodi/web2py/applications/MeetingMinutes/sessions/070/01d/127.0.0.1-0bc1c1af-8e4f-416f-a597-bfc00714426b&#x27;, mode &#x27;rb+&#x27; at 0x7f585a24b780&gt;</div></td></tr><tr><td style="font-weight:bold;vertical-align:top;">session_filename</td><td style="vertical-align:top;">:</td><td><div>/home/mayankmodi/web2py/applications/MeetingMinutes/sessions/127.0.0.1-0bc1c1af-8e4f-416f-a597-bfc00714426b</div></td></tr><tr><td style="font-weight:bold;vertical-align:top;">session_hash</td><td style="vertical-align:top;">:</td><td><div>06eee40ecf3edf23087a01b845bf9197</div></td></tr><tr><td style="font-weight:bold;vertical-align:top;">session_id</td><td style="vertical-align:top;">:</td><td><div>127.0.0.1-0bc1c1af-8e4f-416f-a597-bfc00714426b</div></td></tr><tr><td style="font-weight:bold;vertical-align:top;">session_id_name</td><td style="vertical-align:top;">:</td><td><div>session_id_meetingminutes</div></td></tr><tr><td style="font-weight:bold;vertical-align:top;">session_locked</td><td style="vertical-align:top;">:</td><td><div>True</div></td></tr><tr><td style="font-weight:bold;vertical-align:top;">session_masterapp</td><td style="vertical-align:top;">:</td><td><div>MeetingMinutes</div></td></tr><tr><td style="font-weight:bold;vertical-align:top;">session_new</td><td style="vertical-align:top;">:</td><td><div>False</div></td></tr><tr><td style="font-weight:bold;vertical-align:top;">session_storage_type</td><td style="vertical-align:top;">:</td><td><div>file</div></td></tr><tr><td style="font-weight:bold;vertical-align:top;">status</td><td style="vertical-align:top;">:</td><td><div>200</div></td></tr><tr><td style="font-weight:bold;vertical-align:top;">subtitle</td><td style="vertical-align:top;">:</td><td><div>Thousands of users use MeetingMaster to sort out their agendas, distribute them among colleagues and arrange more meetings.</div></td></tr><tr><td style="font-weight:bold;vertical-align:top;">title</td><td style="vertical-align:top;">:</td><td><div>Because Minutes Matter</div></td></tr><tr><td style="font-weight:bold;vertical-align:top;">view</td><td style="vertical-align:top;">:</td><td><div>default/user.html</div></td></tr></table></div>'
tRp348
sS'locals'
p349
(dp350
S'name'
p351
S"'Username'"
p352
sS'self'
p353
S'<gluon.html.INPUT object>'
p354
sS'value'
p355
S"'last'"
p356
sS'validator'
p357
S'<gluon.validators.IS_NOT_IN_DB object>'
p358
sS'msg'
p359
S"'Validation error, field:Username <gluon.validators.IS_NOT_IN_DB object at 0x7f5859a38fd0>'"
p360
sS'request_vars_get'
p361
S'<built-in method get of Storage object>'
p362
sS'requires'
p363
S'[<gluon.validators.IS_NOT_IN_DB object>]'
p364
sS'k'
S'0'
sssS'traceback'
p365
S'Traceback (most recent call last):\n  File "/home/mayankmodi/web2py/gluon/restricted.py", line 227, in restricted\n    exec ccode in environment\n  File "/home/mayankmodi/web2py/applications/MeetingMinutes/controllers/default.py", line 79, in <module>\n  File "/home/mayankmodi/web2py/gluon/globals.py", line 412, in <lambda>\n    self._caller = lambda f: f()\n  File "/home/mayankmodi/web2py/applications/MeetingMinutes/controllers/default.py", line 39, in user\n    return dict(form=auth())\n  File "/home/mayankmodi/web2py/gluon/tools.py", line 1923, in __call__\n    return getattr(self, args[0])()\n  File "/home/mayankmodi/web2py/gluon/tools.py", line 3343, in register\n    hideerror=self.settings.hideerror):\n  File "/home/mayankmodi/web2py/gluon/sqlhtml.py", line 1505, in accepts\n    **kwargs\n  File "/home/mayankmodi/web2py/gluon/html.py", line 2122, in accepts\n    status = self._traverse(status, hideerror)\n  File "/home/mayankmodi/web2py/gluon/html.py", line 888, in _traverse\n    newstatus = c._traverse(status, hideerror) and newstatus\n  File "/home/mayankmodi/web2py/gluon/html.py", line 888, in _traverse\n    newstatus = c._traverse(status, hideerror) and newstatus\n  File "/home/mayankmodi/web2py/gluon/html.py", line 888, in _traverse\n    newstatus = c._traverse(status, hideerror) and newstatus\n  File "/home/mayankmodi/web2py/gluon/html.py", line 888, in _traverse\n    newstatus = c._traverse(status, hideerror) and newstatus\n  File "/home/mayankmodi/web2py/gluon/html.py", line 895, in _traverse\n    newstatus = self._validate()\n  File "/home/mayankmodi/web2py/gluon/html.py", line 1863, in _validate\n    raise Exception(msg)\nException: Validation error, field:Username <gluon.validators.IS_NOT_IN_DB object at 0x7f5859a38fd0>\n'
p366
s.