(dp1
S'output'
p2
S"<type 'exceptions.TypeError'> CONTAINS() takes at least 3 arguments (3 given)"
p3
sS'layer'
p4
S'/home/hp/web2py/applications/MeetingMinutes/controllers/default.py'
p5
sS'code'
p6
S'# -*- coding: utf-8 -*-\n# this file is released under public domain and you can use without limitations\n\n#########################################################################\n## This is a sample controller\n## - index is the default action of any application\n## - user is required for authentication and authorization\n## - download is for downloading files uploaded in the db (does streaming)\n#########################################################################\n\ndef index():\n    items_per_page=6\n    if len(request.args):\n        page=request.args[0]\n    else:\n        page=0\n    limitby=(page*items_per_page,(page+1)*items_per_page+1)\n    query = db.Meetings.attendees.contains(auth.user) or db.Meetings.minutetaker.contains(auth.user)\n    pages=db(query).select(db.Meetings.ALL,limitby=limitby,orderby=~db.Meetings.id)\n    return (items_per_page==items_per_page)\n\n\ndef user():\n    """\n    exposes:\n    http://..../[app]/default/user/login\n    http://..../[app]/default/user/logout\n    http://..../[app]/default/user/register\n    http://..../[app]/default/user/profile\n    http://..../[app]/default/user/retrieve_password\n    http://..../[app]/default/user/change_password\n    http://..../[app]/default/user/bulk_register\n    use @auth.requires_login()\n        @auth.requires_membership(\'group name\')\n        @auth.requires_permission(\'read\',\'table name\',record_id)\n    to decorate functions that need access control\n    also notice there is http://..../[app]/appadmin/manage/auth to allow administrator to manage users\n    """\n    return dict(form=auth())\n\n\n@cache.action()\ndef download():\n    """\n    allows downloading of uploaded files\n    http://..../[app]/default/download/[filename]\n    """\n    return response.download(request, db)\n\n\ndef call():\n    """\n    exposes services. for example:\n    http://..../[app]/default/call/jsonrpc\n    decorate with @services.jsonrpc the functions to expose\n    supports xml, json, xmlrpc, jsonrpc, amfrpc, rss, csv\n    """\n    return service()\n\ndef minutes():\n    return\n\ndef search():\n    return dict(FORM(INPUT(_id=\'keyword\',_name=\'keyword\',_onkeyup="ajax(\'callback\',[\'keyword\'],\'target\');")),\n                target_div=DIV(_id=\'target\'))\ndef callback():\n    """an ajax callback that returns a <ul> of links to wiki pages"""\n    if auth.user:\n        query = db.Meetings.ALL.contains(request.vars.keyword) \n        pages = db(query).select(db.Meetings.ALL,orderby=~db.Meetings.id)\n    return dict(pages=pages)\n    links = [A(p.title, _href=URL(\'show\',args=p.id)) for p in pages]\n    return UL(*links)\n\nresponse._vars=response._caller(index)\n'
p7
sS'snapshot'
p8
(dp9
sS'traceback'
p10
S'Traceback (most recent call last):\n  File "/home/hp/web2py/gluon/restricted.py", line 227, in restricted\n    exec ccode in environment\n  File "/home/hp/web2py/applications/MeetingMinutes/controllers/default.py", line 75, in <module>\n  File "/home/hp/web2py/gluon/globals.py", line 412, in <lambda>\n    self._caller = lambda f: f()\n  File "/home/hp/web2py/applications/MeetingMinutes/controllers/default.py", line 19, in index\n    pages=db(query).select(db.Meetings.ALL,limitby=limitby,orderby=~db.Meetings.id)\n  File "/home/hp/web2py/gluon/packages/dal/pydal/objects.py", line 2025, in select\n    return adapter.select(self.query,fields,attributes)\n  File "/home/hp/web2py/gluon/packages/dal/pydal/adapters/sqlite.py", line 124, in select\n    return super(SQLiteAdapter, self).select(query, fields, attributes)\n  File "/home/hp/web2py/gluon/packages/dal/pydal/adapters/base.py", line 1280, in select\n    sql = self._select(query, fields, attributes)\n  File "/home/hp/web2py/gluon/packages/dal/pydal/adapters/base.py", line 1167, in _select\n    sql_w = \' WHERE \' + self.expand(query) if query else \'\'\n  File "/home/hp/web2py/gluon/packages/dal/pydal/adapters/base.py", line 954, in expand\n    rv = op(first, **optional_args)\nTypeError: CONTAINS() takes at least 3 arguments (3 given)\n'
p11
s.